Certificate Request:
    Data:
        Version: 1 (0x0)
        Subject: O=Example, CN=example.org
        Subject Public Key Info:
            Public Key Algorithm: rsaEncryption
                Public-Key: (4096 bit)
                Modulus:
                    00:bd:c6:9a:47:18:a6:ac:e2:be:88:5a:15:cd:46:
                    d8:38:11:a6:6e:b9:f2:dd:bb:10:ba:7a:aa:4e:22:
                    c2:36:7c:21:93:27:42:5d:cd:f5:93:26:6d:4f:a3:
                    15:68:3e:66:f3:44:4d:9a:22:f7:56:ce:82:73:e1:
                    3e:d5:e7:18:43:fb:d4:28:2d:e3:bf:ab:27:95:af:
                    c1:cb:e5:02:f8:b3:96:f3:1f:ee:6a:ab:0e:11:73:
                    02:a2:97:ee:42:dd:3f:e6:a4:15:f0:bf:5a:37:fd:
                    c2:1d:cc:16:f4:f1:64:e6:f7:ba:13:47:51:eb:0f:
                    31:ef:ce:39:15:34:8b:6a:f7:43:31:f0:09:35:dc:
                    f7:d7:3c:15:1d:31:61:17:57:f4:2a:fa:8a:0e:22:
                    ad:d6:e0:9b:06:dd:04:a4:44:de:ad:b7:75:52:57:
                    51:3a:8d:cc:77:38:e9:ad:e3:f4:a9:5f:13:d9:35:
                    84:9c:b4:93:48:29:b8:33:a5:89:9b:25:89:c2:06:
                    fc:19:63:6d:e2:6a:1f:6b:56:19:e2:6b:a2:f9:ce:
                    e9:31:ce:7e:de:d2:69:45:75:84:94:2d:23:10:23:
                    d1:86:36:6b:43:0c:51:b2:a2:b6:f9:91:67:ea:0f:
                    66:eb:06:40:59:7e:44:0e:db:d2:fc:5e:50:ad:e1:
                    4c:ee:a8:48:61:95:a8:18:52:7b:84:f9:d8:40:49:
                    ef:87:34:14:e2:5d:1b:51:e9:eb:9b:7a:0c:df:c7:
                    4b:4a:ce:f1:c4:11:03:b1:15:17:1c:0c:9e:7b:e8:
                    b5:ff:44:d4:ee:d9:bf:a5:11:63:e9:54:f0:fa:f7:
                    68:12:33:61:51:35:5c:8b:e6:64:88:fa:d0:1b:2d:
                    f3:b9:91:cf:5b:46:b1:67:fd:f6:10:f1:5b:21:5a:
                    7a:c5:6a:83:91:08:e4:6f:6b:29:fd:42:67:24:32:
                    4d:3c:21:7c:b6:eb:e3:0b:09:a3:e4:b7:63:8c:d2:
                    3f:4c:72:3b:2a:5a:4e:26:70:c9:d5:95:6f:fe:09:
                    e4:c0:65:68:db:3b:64:c5:37:82:e8:29:f6:11:27:
                    e0:1c:d8:ce:4f:25:c5:ca:82:84:a3:25:de:b1:5d:
                    8d:63:e4:4a:5d:bf:b4:fd:fd:5a:f5:68:fd:3d:3c:
                    f2:f2:92:ea:ff:f5:46:ae:27:d0:8c:f7:dd:dd:c5:
                    6d:ac:81:36:51:cc:66:31:cf:9b:08:1b:bc:be:58:
                    2a:39:c4:b6:44:32:8b:ee:a2:b0:1b:7c:83:fe:0a:
                    2f:16:59:6c:de:6e:77:2a:c2:25:6e:e7:df:11:a3:
                    dc:36:28:92:13:99:56:de:eb:a6:23:00:82:a1:c0:
                    10:1d:15
                Exponent: 65537 (0x10001)
        Attributes:
            a0:00
    Signature Algorithm: sha256WithRSAEncryption
         a5:e3:5a:11:d3:c7:ac:3b:15:2c:a1:f4:97:47:9f:ef:ac:d4:
         74:0b:a2:9d:55:97:b6:2f:d7:4b:0b:b7:bb:6e:1b:e9:16:e5:
         6d:c7:b2:4d:c0:4e:be:d9:1e:b7:df:bc:dd:9b:59:33:cf:64:
         af:f7:4a:21:8e:dc:4d:57:07:67:52:2a:ca:15:4c:5f:fb:8e:
         4b:31:f6:22:d3:fe:04:2f:0a:08:fb:0c:66:59:fd:fc:e3:4a:
         24:3c:4d:f9:fe:d4:72:71:c1:eb:05:71:fa:92:15:46:e2:05:
         52:66:24:67:ad:75:f5:e6:57:9d:ea:b7:99:39:48:78:3f:20:
         cb:94:9b:34:ac:ca:12:04:e3:69:c3:9b:28:3a:1d:b7:b4:fd:
         98:12:24:05:b6:ef:dc:58:8e:93:10:61:e0:97:84:5a:a6:6a:
         19:6d:cb:bc:ff:d2:96:6b:e9:7f:97:b0:19:9e:a4:bd:87:82:
         98:1b:ed:74:7e:37:62:48:79:25:1d:af:e6:21:1c:bc:c1:c2:
         e3:1f:bd:43:c0:cd:9d:e9:38:68:7b:09:39:66:9a:13:77:0b:
         4c:6e:88:b8:18:3e:12:92:87:d7:77:37:a3:fc:5d:fd:47:29:
         c5:37:27:6d:8c:73:16:9d:d4:00:f7:1a:02:0f:f6:4f:4a:7b:
         d0:0b:17:94:e9:ad:d5:5d:b3:d4:86:5d:86:e3:75:b9:cd:13:
         81:ad:9c:7b:14:c4:35:98:61:1d:1b:83:4c:e5:4b:e4:c1:72:
         05:51:1c:60:fe:d5:2b:3b:84:56:93:79:db:d5:e8:7e:98:b0:
         6b:f1:dd:8d:b0:d4:61:e5:bd:85:9e:00:4f:e7:8a:b5:46:57:
         11:87:11:d9:f3:8a:6f:d2:c3:bc:6e:df:62:e9:59:e7:45:f3:
         24:80:20:b0:64:2f:f3:6f:da:09:47:2c:28:6b:2d:62:5c:05:
         31:f6:68:4f:69:f0:74:71:9f:33:a8:86:2d:c7:2b:fb:ad:7c:
         9a:eb:76:b9:8b:65:15:a8:66:33:b5:57:e2:8b:3d:8f:20:10:
         30:70:65:bc:5b:28:56:4b:43:d3:67:1f:34:33:20:fd:77:40:
         45:be:f5:ee:c9:1a:4c:a3:c5:c3:f9:d5:50:9e:b1:c6:31:00:
         b1:4c:8f:ba:4f:65:b8:4c:ba:da:64:b3:8d:0e:7a:db:12:9a:
         ab:6f:ea:1f:91:f7:7a:2b:35:64:6c:82:de:fe:05:0b:6f:03:
         ac:47:b0:d5:c8:a1:80:c0:10:f1:5f:74:0e:85:50:7a:b5:44:
         b1:eb:2c:f5:5a:83:e1:a7:ab:56:72:34:a8:8d:6d:da:c4:49:
         6f:a5:49:cc:c2:d7:e1:e2
-----BEGIN CERTIFICATE REQUEST-----
MIIEbTCCAlUCAQAwKDEQMA4GA1UECgwHRXhhbXBsZTEUMBIGA1UEAwwLZXhhbXBs
ZS5vcmcwggIiMA0GCSqGSIb3DQEBAQUAA4ICDwAwggIKAoICAQC9xppHGKas4r6I
WhXNRtg4EaZuufLduxC6eqpOIsI2fCGTJ0JdzfWTJm1PoxVoPmbzRE2aIvdWzoJz
4T7V5xhD+9QoLeO/qyeVr8HL5QL4s5bzH+5qqw4RcwKil+5C3T/mpBXwv1o3/cId
zBb08WTm97oTR1HrDzHvzjkVNItq90Mx8Ak13PfXPBUdMWEXV/Qq+ooOIq3W4JsG
3QSkRN6tt3VSV1E6jcx3OOmt4/SpXxPZNYSctJNIKbgzpYmbJYnCBvwZY23iah9r
Vhnia6L5zukxzn7e0mlFdYSULSMQI9GGNmtDDFGyorb5kWfqD2brBkBZfkQO29L8
XlCt4UzuqEhhlagYUnuE+dhASe+HNBTiXRtR6eubegzfx0tKzvHEEQOxFRccDJ57
6LX/RNTu2b+lEWPpVPD692gSM2FRNVyL5mSI+tAbLfO5kc9bRrFn/fYQ8VshWnrF
aoORCORvayn9QmckMk08IXy26+MLCaPkt2OM0j9McjsqWk4mcMnVlW/+CeTAZWjb
O2TFN4LoKfYRJ+Ac2M5PJcXKgoSjJd6xXY1j5Epdv7T9/Vr1aP09PPLykur/9Uau
J9CM993dxW2sgTZRzGYxz5sIG7y+WCo5xLZEMovuorAbfIP+Ci8WWWzebncqwiVu
598Ro9w2KJITmVbe66YjAIKhwBAdFQIDAQABoAAwDQYJKoZIhvcNAQELBQADggIB
AKXjWhHTx6w7FSyh9JdHn++s1HQLop1Vl7Yv10sLt7tuG+kW5W3Hsk3ATr7ZHrff
vN2bWTPPZK/3SiGO3E1XB2dSKsoVTF/7jksx9iLT/gQvCgj7DGZZ/fzjSiQ8Tfn+
1HJxwesFcfqSFUbiBVJmJGetdfXmV53qt5k5SHg/IMuUmzSsyhIE42nDmyg6Hbe0
/ZgSJAW279xYjpMQYeCXhFqmahlty7z/0pZr6X+XsBmepL2Hgpgb7XR+N2JIeSUd
r+YhHLzBwuMfvUPAzZ3pOGh7CTlmmhN3C0xuiLgYPhKSh9d3N6P8Xf1HKcU3J22M
cxad1AD3GgIP9k9Ke9ALF5TprdVds9SGXYbjdbnNE4GtnHsUxDWYYR0bg0zlS+TB
cgVRHGD+1Ss7hFaTedvV6H6YsGvx3Y2w1GHlvYWeAE/nirVGVxGHEdnzim/Sw7xu
32LpWedF8ySAILBkL/Nv2glHLChrLWJcBTH2aE9p8HRxnzOohi3HK/utfJrrdrmL
ZRWoZjO1V+KLPY8gEDBwZbxbKFZLQ9NnHzQzIP13QEW+9e7JGkyjxcP51VCescYx
ALFMj7pPZbhMutpks40OetsSmqtv6h+R93orNWRsgt7+BQtvA6xHsNXIoYDAEPFf
dA6FUHq1RLHrLPVag+Gnq1ZyNKiNbdrESW+lSczC1+Hi
-----END CERTIFICATE REQUEST-----
